; Function Attrs: nounwind uwtable
define internal void @VULKAN_INTERNAL_FramebufferHashDestroy(ptr noundef captures(none) %0, ptr noundef %1, ptr noundef %2) #0 {
  %4 = getelementptr inbounds nuw i8, ptr %0, i64 2472
  %5 = load ptr, ptr %4, align 8
  tail call void @SDL_LockMutex_REAL(ptr noundef %5) #13
  %6 = getelementptr inbounds nuw i8, ptr %0, i64 2456
  %7 = load i32, ptr %6, align 8
  %8 = add i32 %7, 1
  %9 = getelementptr inbounds nuw i8, ptr %0, i64 2460
  %10 = load i32, ptr %9, align 4
  %.not.i = icmp ult i32 %8, %10
  br i1 %.not.i, label %._crit_edge.i, label %11

._crit_edge.i:                                    ; preds = %3
  %.phi.trans.insert.i = getelementptr inbounds nuw i8, ptr %0, i64 2448
  %.pre.i = load ptr, ptr %.phi.trans.insert.i, align 8
  br label %VULKAN_INTERNAL_ReleaseFramebuffer.exit

11:                                               ; preds = %3
  %12 = shl i32 %10, 1
  store i32 %12, ptr %9, align 4
  %13 = getelementptr inbounds nuw i8, ptr %0, i64 2448
  %14 = load ptr, ptr %13, align 8
  %15 = zext i32 %12 to i64
  %16 = shl nuw nsw i64 %15, 3
  %17 = tail call ptr @SDL_realloc_REAL(ptr noundef %14, i64 noundef %16) #16
  store ptr %17, ptr %13, align 8
  %.pre13.i = load i32, ptr %6, align 8
  br label %VULKAN_INTERNAL_ReleaseFramebuffer.exit

VULKAN_INTERNAL_ReleaseFramebuffer.exit:          ; preds = %._crit_edge.i, %11
  %18 = phi i32 [ %7, %._crit_edge.i ], [ %.pre13.i, %11 ]
  %19 = phi ptr [ %.pre.i, %._crit_edge.i ], [ %17, %11 ]
  %20 = zext i32 %18 to i64
  %21 = getelementptr inbounds nuw ptr, ptr %19, i64 %20
  store ptr %2, ptr %21, align 8
  %22 = load i32, ptr %6, align 8
  %23 = add i32 %22, 1
  store i32 %23, ptr %6, align 8
  %24 = load ptr, ptr %4, align 8
  tail call void @SDL_UnlockMutex_REAL(ptr noundef %24) #13
  tail call void @SDL_free_REAL(ptr noundef %1) #13
  ret void
}